target datalayout = "e-m:e-p270:32:32-p271:32:32-p272:64:64-i64:64-i128:128-f80:128-n8:16:32:64-S128"
target triple = "x86_64-pc-linux-gnu"

%struct.ZSTD_customMem = type { ptr, ptr, ptr }
%struct.ZSTD_frameParameters = type { i32, i32, i32 }
%struct.ZSTD_compressionParameters = type { i32, i32, i32, i32, i32, i32, i32 }
%struct.ZSTD_CCtx_s = type { i32, i32, i32, %struct.ZSTD_CCtx_params_s, %struct.ZSTD_CCtx_params_s, %struct.ZSTD_CCtx_params_s, i32, i64, %struct.ZSTD_cwksp, i64, i64, i64, i64, %struct.XXH64_state_s, %struct.ZSTD_customMem, ptr, i64, %struct.SeqCollector, i32, i32, %struct.SeqStore_t, %struct.ldmState_t, ptr, i64, %struct.RawSeqStore_t, %struct.ZSTD_blockState_t, ptr, i64, i32, ptr, i64, i64, i64, i64, ptr, i64, i64, i64, i32, i32, %struct.ZSTD_inBuffer_s, i64, i64, %struct.ZSTD_localDict, ptr, %struct.ZSTD_prefixDict_s, ptr, i64, %struct.ZSTD_blockSplitCtx, ptr, i64 }
%struct.ZSTD_CCtx_params_s = type { i32, %struct.ZSTD_compressionParameters, %struct.ZSTD_frameParameters, i32, i32, i64, i32, i32, i32, i32, i64, i32, i32, %struct.ldmParams_t, i32, i32, i32, i32, i32, i32, i32, i64, i32, i32, %struct.ZSTD_customMem, i32, i32, ptr, ptr, i32 }
%struct.ldmParams_t = type { i32, i32, i32, i32, i32, i32 }
%struct.ZSTD_cwksp = type { ptr, ptr, ptr, ptr, ptr, ptr, ptr, i8, i32, i32, i32 }
%struct.XXH64_state_s = type { i64, [4 x i64], [4 x i64], i32, i32, i64 }
%struct.SeqCollector = type { i32, ptr, i64, i64 }
%struct.SeqStore_t = type { ptr, ptr, ptr, ptr, ptr, ptr, ptr, i64, i64, i32, i32 }
%struct.ldmState_t = type { %struct.ZSTD_window_t, ptr, i32, ptr, [64 x i64], [64 x %struct.ldmMatchCandidate_t] }
%struct.ZSTD_window_t = type { ptr, ptr, ptr, i32, i32, i32 }
%struct.ldmMatchCandidate_t = type { ptr, i32, i32, ptr }
%struct.RawSeqStore_t = type { ptr, i64, i64, i64, i64 }
%struct.ZSTD_blockState_t = type { ptr, ptr, %struct.ZSTD_MatchState_t }
%struct.ZSTD_MatchState_t = type { %struct.ZSTD_window_t, i32, i32, i32, i32, ptr, [8 x i32], i64, i32, ptr, ptr, ptr, i32, i32, %struct.optState_t, ptr, %struct.ZSTD_compressionParameters, ptr, i32, i32 }
%struct.optState_t = type { ptr, ptr, ptr, ptr, ptr, ptr, i32, i32, i32, i32, i32, i32, i32, i32, i32, ptr, i32 }
%struct.ZSTD_inBuffer_s = type { ptr, i64, i64 }
%struct.ZSTD_localDict = type { ptr, ptr, i64, i32, ptr }
%struct.ZSTD_prefixDict_s = type { ptr, i64, i32 }
%struct.ZSTD_blockSplitCtx = type { %struct.SeqStore_t, %struct.SeqStore_t, %struct.SeqStore_t, %struct.SeqStore_t, %struct.SeqStore_t, [196 x i32], %struct.ZSTD_entropyCTablesMetadata_t }
%struct.ZSTD_entropyCTablesMetadata_t = type { %struct.ZSTD_hufCTablesMetadata_t, %struct.ZSTD_fseCTablesMetadata_t }
%struct.ZSTD_hufCTablesMetadata_t = type { i32, [128 x i8], i64 }
%struct.ZSTD_fseCTablesMetadata_t = type { i32, i32, i32, [133 x i8], i64, i64 }
%struct.ZSTD_frameProgression = type { i64, i64, i64, i64, i32, i32 }

; Function Attrs: nounwind uwtable
define void @ZSTD_getFrameProgression(ptr dead_on_unwind noalias writable sret(%struct.ZSTD_frameProgression) align 8 %0, ptr noundef %1) #0 {
  %3 = alloca ptr, align 8
  %4 = alloca i64, align 8
  store ptr %1, ptr %3, align 8, !tbaa !11
  %5 = load ptr, ptr %3, align 8, !tbaa !11
  %6 = getelementptr inbounds nuw %struct.ZSTD_CCtx_s, ptr %5, i32 0, i32 4
  %7 = getelementptr inbounds nuw %struct.ZSTD_CCtx_params_s, ptr %6, i32 0, i32 9
  %8 = load i32, ptr %7, align 4, !tbaa !161
  %9 = icmp sgt i32 %8, 0
  br i1 %9, label %10, label %14

10:                                               ; preds = %2
  %11 = load ptr, ptr %3, align 8, !tbaa !11
  %12 = getelementptr inbounds nuw %struct.ZSTD_CCtx_s, ptr %11, i32 0, i32 46
  %13 = load ptr, ptr %12, align 8, !tbaa !74
  call void @ZSTDMT_getFrameProgression(ptr dead_on_unwind writable sret(%struct.ZSTD_frameProgression) align 8 %0, ptr noundef %13)
  br label %54

14:                                               ; preds = %2
  call void @llvm.lifetime.start.p0(i64 8, ptr %4) #15
  %15 = load ptr, ptr %3, align 8, !tbaa !11
  %16 = getelementptr inbounds nuw %struct.ZSTD_CCtx_s, ptr %15, i32 0, i32 29
  %17 = load ptr, ptr %16, align 8, !tbaa !162
  %18 = icmp eq ptr %17, null
  br i1 %18, label %19, label %20

19:                                               ; preds = %14
  br label %28

20:                                               ; preds = %14
  %21 = load ptr, ptr %3, align 8, !tbaa !11
  %22 = getelementptr inbounds nuw %struct.ZSTD_CCtx_s, ptr %21, i32 0, i32 32
  %23 = load i64, ptr %22, align 8, !tbaa !163
  %24 = load ptr, ptr %3, align 8, !tbaa !11
  %25 = getelementptr inbounds nuw %struct.ZSTD_CCtx_s, ptr %24, i32 0, i32 31
  %26 = load i64, ptr %25, align 8, !tbaa !164
  %27 = sub i64 %23, %26
  br label %28

28:                                               ; preds = %20, %19
  %29 = phi i64 [ 0, %19 ], [ %27, %20 ]
  store i64 %29, ptr %4, align 8, !tbaa !3
  %30 = load i64, ptr %4, align 8, !tbaa !3
  %31 = icmp ne i64 %30, 0
  br i1 %31, label %32, label %33

32:                                               ; preds = %28
  br label %33

33:                                               ; preds = %32, %28
  %34 = load ptr, ptr %3, align 8, !tbaa !11
  %35 = getelementptr inbounds nuw %struct.ZSTD_CCtx_s, ptr %34, i32 0, i32 11
  %36 = load i64, ptr %35, align 8, !tbaa !165
  %37 = load i64, ptr %4, align 8, !tbaa !3
  %38 = add i64 %36, %37
  %39 = getelementptr inbounds nuw %struct.ZSTD_frameProgression, ptr %0, i32 0, i32 0
  store i64 %38, ptr %39, align 8, !tbaa !166
  %40 = load ptr, ptr %3, align 8, !tbaa !11
  %41 = getelementptr inbounds nuw %struct.ZSTD_CCtx_s, ptr %40, i32 0, i32 11
  %42 = load i64, ptr %41, align 8, !tbaa !165
  %43 = getelementptr inbounds nuw %struct.ZSTD_frameProgression, ptr %0, i32 0, i32 1
  store i64 %42, ptr %43, align 8, !tbaa !168
  %44 = load ptr, ptr %3, align 8, !tbaa !11
  %45 = getelementptr inbounds nuw %struct.ZSTD_CCtx_s, ptr %44, i32 0, i32 12
  %46 = load i64, ptr %45, align 8, !tbaa !169
  %47 = getelementptr inbounds nuw %struct.ZSTD_frameProgression, ptr %0, i32 0, i32 2
  store i64 %46, ptr %47, align 8, !tbaa !170
  %48 = load ptr, ptr %3, align 8, !tbaa !11
  %49 = getelementptr inbounds nuw %struct.ZSTD_CCtx_s, ptr %48, i32 0, i32 12
  %50 = load i64, ptr %49, align 8, !tbaa !169
  %51 = getelementptr inbounds nuw %struct.ZSTD_frameProgression, ptr %0, i32 0, i32 3
  store i64 %50, ptr %51, align 8, !tbaa !171
  %52 = getelementptr inbounds nuw %struct.ZSTD_frameProgression, ptr %0, i32 0, i32 4
  store i32 0, ptr %52, align 8, !tbaa !172
  %53 = getelementptr inbounds nuw %struct.ZSTD_frameProgression, ptr %0, i32 0, i32 5
  store i32 0, ptr %53, align 4, !tbaa !173
  call void @llvm.lifetime.end.p0(i64 8, ptr %4) #15
  br label %54

54:                                               ; preds = %33, %10
  ret void
}