; Function Attrs: nounwind uwtable
define void @ZSTD_getFrameProgression(ptr dead_on_unwind noalias writable sret(%struct.ZSTD_frameProgression) align 8 %0, ptr noundef readonly captures(none) %1) local_unnamed_addr #2 {
  %3 = getelementptr inbounds nuw i8, ptr %1, i64 316
  %4 = load i32, ptr %3, align 4, !tbaa !149
  %5 = icmp sgt i32 %4, 0
  br i1 %5, label %6, label %9

6:                                                ; preds = %2
  %7 = getelementptr inbounds nuw i8, ptr %1, i64 3760
  %8 = load ptr, ptr %7, align 8, !tbaa !60
  tail call void @ZSTDMT_getFrameProgression(ptr dead_on_unwind writable sret(%struct.ZSTD_frameProgression) align 8 %0, ptr noundef %8) #28
  br label %31

9:                                                ; preds = %2
  %10 = getelementptr inbounds nuw i8, ptr %1, i64 3568
  %11 = load ptr, ptr %10, align 8, !tbaa !150
  %12 = icmp eq ptr %11, null
  br i1 %12, label %19, label %13

13:                                               ; preds = %9
  %14 = getelementptr inbounds nuw i8, ptr %1, i64 3592
  %15 = load i64, ptr %14, align 8, !tbaa !151
  %16 = getelementptr inbounds nuw i8, ptr %1, i64 3584
  %17 = load i64, ptr %16, align 8, !tbaa !152
  %18 = sub i64 %15, %17
  br label %19

19:                                               ; preds = %9, %13
  %20 = phi i64 [ %18, %13 ], [ 0, %9 ]
  %21 = getelementptr inbounds nuw i8, ptr %1, i64 792
  %22 = load i64, ptr %21, align 8, !tbaa !153
  %23 = add i64 %22, %20
  store i64 %23, ptr %0, align 8, !tbaa !154
  %24 = getelementptr inbounds nuw i8, ptr %0, i64 8
  store i64 %22, ptr %24, align 8, !tbaa !156
  %25 = getelementptr inbounds nuw i8, ptr %1, i64 800
  %26 = load i64, ptr %25, align 8, !tbaa !157
  %27 = getelementptr inbounds nuw i8, ptr %0, i64 16
  store i64 %26, ptr %27, align 8, !tbaa !158
  %28 = getelementptr inbounds nuw i8, ptr %0, i64 24
  store i64 %26, ptr %28, align 8, !tbaa !159
  %29 = getelementptr inbounds nuw i8, ptr %0, i64 32
  store i32 0, ptr %29, align 8, !tbaa !160
  %30 = getelementptr inbounds nuw i8, ptr %0, i64 36
  store i32 0, ptr %30, align 4, !tbaa !161
  br label %31

31:                                               ; preds = %19, %6
  ret void
}